; Function Attrs: mustprogress uwtable
define internal noundef i32 @_ZL34hb_font_get_nominal_glyphs_defaultP9hb_font_tPvjPKjjPjjS1_(ptr noundef %0, ptr nocapture readnone %1, i32 noundef %2, ptr noundef %3, i32 noundef %4, ptr noundef %5, i32 noundef %6, ptr nocapture readnone %7) #1 {
  %9 = getelementptr inbounds i8, ptr %0, i64 144
  %10 = load ptr, ptr %9, align 8
  %11 = getelementptr inbounds i8, ptr %10, i64 48
  %12 = load ptr, ptr %11, align 8
  %13 = load ptr, ptr getelementptr inbounds (i8, ptr @_ZL22_hb_font_funcs_default, i64 48), align 8
  %.not24 = icmp eq ptr %12, %13
  br i1 %.not24, label %34, label %.preheader

.preheader:                                       ; preds = %8
  %.not29 = icmp eq i32 %2, 0
  br i1 %.not29, label %.loopexit, label %.lr.ph

.lr.ph:                                           ; preds = %.preheader
  %14 = getelementptr inbounds i8, ptr %0, i64 152
  %15 = zext i32 %4 to i64
  %16 = zext i32 %6 to i64
  br label %17

17:                                               ; preds = %.lr.ph, %30
  %.027 = phi i32 [ 0, %.lr.ph ], [ %33, %30 ]
  %.02026 = phi ptr [ %3, %.lr.ph ], [ %31, %30 ]
  %.02125 = phi ptr [ %5, %.lr.ph ], [ %32, %30 ]
  %18 = load i32, ptr %.02026, align 4
  store i32 0, ptr %.02125, align 4
  %19 = load ptr, ptr %9, align 8
  %20 = getelementptr inbounds i8, ptr %19, i64 48
  %21 = load ptr, ptr %20, align 8
  %22 = load ptr, ptr %14, align 8
  %23 = getelementptr inbounds i8, ptr %19, i64 16
  %24 = load ptr, ptr %23, align 8
  %.not.i = icmp eq ptr %24, null
  br i1 %.not.i, label %_ZN9hb_font_t17get_nominal_glyphEjPjj.exit, label %25

25:                                               ; preds = %17
  %26 = getelementptr inbounds i8, ptr %24, i64 16
  %27 = load ptr, ptr %26, align 8
  br label %_ZN9hb_font_t17get_nominal_glyphEjPjj.exit

_ZN9hb_font_t17get_nominal_glyphEjPjj.exit:       ; preds = %17, %25
  %28 = phi ptr [ %27, %25 ], [ null, %17 ]
  %29 = tail call noundef i32 %21(ptr noundef nonnull %0, ptr noundef %22, i32 noundef %18, ptr noundef nonnull %.02125, ptr noundef %28)
  %.not = icmp eq i32 %29, 0
  br i1 %.not, label %.loopexit, label %30

30:                                               ; preds = %_ZN9hb_font_t17get_nominal_glyphEjPjj.exit
  %31 = getelementptr inbounds i8, ptr %.02026, i64 %15
  %32 = getelementptr inbounds i8, ptr %.02125, i64 %16
  %33 = add nuw i32 %.027, 1
  %exitcond.not = icmp eq i32 %33, %2
  br i1 %exitcond.not, label %.loopexit, label %17, !llvm.loop !6

34:                                               ; preds = %8
  %35 = getelementptr inbounds i8, ptr %0, i64 24
  %36 = load ptr, ptr %35, align 8
  %37 = getelementptr inbounds i8, ptr %36, i64 144
  %38 = load ptr, ptr %37, align 8
  %39 = getelementptr inbounds i8, ptr %38, i64 56
  %40 = load ptr, ptr %39, align 8
  %41 = getelementptr inbounds i8, ptr %36, i64 152
  %42 = load ptr, ptr %41, align 8
  %43 = getelementptr inbounds i8, ptr %38, i64 16
  %44 = load ptr, ptr %43, align 8
  %.not.i23 = icmp eq ptr %44, null
  br i1 %.not.i23, label %_ZN9hb_font_t18get_nominal_glyphsEjPKjjPjj.exit, label %45

45:                                               ; preds = %34
  %46 = getelementptr inbounds i8, ptr %44, i64 24
  %47 = load ptr, ptr %46, align 8
  br label %_ZN9hb_font_t18get_nominal_glyphsEjPKjjPjj.exit

_ZN9hb_font_t18get_nominal_glyphsEjPKjjPjj.exit:  ; preds = %34, %45
  %48 = phi ptr [ %47, %45 ], [ null, %34 ]
  %49 = tail call noundef i32 %40(ptr noundef nonnull %36, ptr noundef %42, i32 noundef %2, ptr noundef %3, i32 noundef %4, ptr noundef %5, i32 noundef %6, ptr noundef %48)
  br label %.loopexit

.loopexit:                                        ; preds = %_ZN9hb_font_t17get_nominal_glyphEjPjj.exit, %30, %.preheader, %_ZN9hb_font_t18get_nominal_glyphsEjPKjjPjj.exit
  %.019 = phi i32 [ %49, %_ZN9hb_font_t18get_nominal_glyphsEjPKjjPjj.exit ], [ 0, %.preheader ], [ %.027, %_ZN9hb_font_t17get_nominal_glyphEjPjj.exit ], [ %2, %30 ]
  ret i32 %.019
}